; Function Attrs: mustprogress uwtable
define void @_ZN2cv3MatC2ERKSt6vectorIiSaIiEEi(ptr noundef nonnull align 8 dereferenceable(96) initializes((0, 64)) %0, ptr noundef nonnull readonly align 8 captures(none) dereferenceable(24) %1, i32 noundef %2) unnamed_addr #1 align 2 {
  store i32 1124007936, ptr %0, align 8, !tbaa !61
  %4 = getelementptr inbounds nuw i8, ptr %0, i64 4
  %5 = getelementptr inbounds nuw i8, ptr %0, i64 8
  %6 = getelementptr inbounds nuw i8, ptr %0, i64 64
  tail call void @llvm.memset.p0.i64(ptr noundef nonnull align 4 dereferenceable(60) %4, i8 0, i64 60, i1 false)
  store ptr %5, ptr %6, align 8, !tbaa !49
  %7 = getelementptr inbounds nuw i8, ptr %0, i64 72
  %8 = getelementptr inbounds nuw i8, ptr %0, i64 80
  store ptr %8, ptr %7, align 8, !tbaa !63
  %9 = getelementptr inbounds nuw i8, ptr %1, i64 8
  tail call void @llvm.memset.p0.i64(ptr noundef nonnull align 8 dereferenceable(16) %8, i8 0, i64 16, i1 false)
  %10 = load ptr, ptr %9, align 8, !tbaa !75
  %11 = load ptr, ptr %1, align 8, !tbaa !77
  %12 = ptrtoint ptr %10 to i64
  %13 = ptrtoint ptr %11 to i64
  %14 = sub i64 %12, %13
  %15 = lshr exact i64 %14, 2
  %16 = trunc i64 %15 to i32
  tail call void @_ZN2cv3Mat6createEiPKii(ptr noundef nonnull align 8 dereferenceable(96) %0, i32 noundef %16, ptr noundef %11, i32 noundef %2)
  ret void
}